; Function Attrs: nounwind uwtable
define internal noundef zeroext i1 @Wayland_ShowCursor(ptr noundef readonly captures(address_is_null) %0) #0 {
  %2 = tail call ptr @SDL_GetVideoDevice() #6
  %3 = getelementptr inbounds nuw i8, ptr %2, i64 1656
  %4 = load ptr, ptr %3, align 8
  %5 = tail call ptr @SDL_GetMouse() #6
  %6 = getelementptr inbounds nuw i8, ptr %4, i64 248
  %7 = getelementptr inbounds nuw i8, ptr %4, i64 256
  %.pn16 = load ptr, ptr %7, align 8
  %.not18 = icmp eq ptr %.pn16, %6
  br i1 %.not18, label %._crit_edge, label %.lr.ph

.lr.ph:                                           ; preds = %1
  %8 = getelementptr inbounds nuw i8, ptr %5, i64 128
  br label %9

9:                                                ; preds = %.lr.ph, %Wayland_SeatSetCursor.exit
  %.pn19 = phi ptr [ %.pn16, %.lr.ph ], [ %.pn, %Wayland_SeatSetCursor.exit ]
  %.020 = getelementptr inbounds i8, ptr %.pn19, i64 -40
  %10 = load ptr, ptr %8, align 8
  %.not14 = icmp eq ptr %10, null
  br i1 %.not14, label %._crit_edge21, label %11

._crit_edge21:                                    ; preds = %9
  %.phi.trans.insert = getelementptr inbounds nuw i8, ptr %.pn19, i64 280
  %.pre = load ptr, ptr %.phi.trans.insert, align 8
  br label %18

11:                                               ; preds = %9
  %12 = getelementptr inbounds nuw i8, ptr %10, i64 392
  %13 = load ptr, ptr %12, align 8
  %14 = getelementptr inbounds nuw i8, ptr %.pn19, i64 280
  %15 = load ptr, ptr %14, align 8
  %16 = icmp eq ptr %13, %15
  br i1 %16, label %17, label %18

17:                                               ; preds = %11
  tail call fastcc void @Wayland_SeatSetCursor(ptr noundef nonnull %.020, ptr noundef %0)
  br label %Wayland_SeatSetCursor.exit

18:                                               ; preds = %._crit_edge21, %11
  %19 = phi ptr [ %.pre, %._crit_edge21 ], [ %15, %11 ]
  %.not15 = icmp eq ptr %19, null
  br i1 %.not15, label %20, label %Wayland_SeatSetCursor.exit

20:                                               ; preds = %18
  %21 = getelementptr inbounds nuw i8, ptr %.pn19, i64 232
  %22 = load ptr, ptr %21, align 8
  %.not.i = icmp eq ptr %22, null
  br i1 %.not.i, label %Wayland_SeatSetCursor.exit, label %23

23:                                               ; preds = %20
  %24 = getelementptr inbounds nuw i8, ptr %.pn19, i64 376
  %25 = load ptr, ptr %24, align 8
  %.not73.i = icmp eq ptr %25, null
  br i1 %.not73.i, label %31, label %26

26:                                               ; preds = %23
  %27 = getelementptr inbounds nuw i8, ptr %.pn19, i64 288
  %28 = load ptr, ptr %27, align 8
  %.not74.i = icmp eq ptr %28, null
  br i1 %.not74.i, label %31, label %29

29:                                               ; preds = %26
  %30 = load ptr, ptr @WAYLAND_wl_proxy_destroy, align 8
  tail call void %30(ptr noundef nonnull %25) #6
  store ptr null, ptr %24, align 8
  %.pre22 = load ptr, ptr %21, align 8
  br label %31

31:                                               ; preds = %29, %26, %23
  %32 = phi ptr [ %.pre22, %29 ], [ %22, %26 ], [ %22, %23 ]
  %33 = getelementptr inbounds nuw i8, ptr %.pn19, i64 288
  store ptr null, ptr %33, align 8
  %34 = getelementptr inbounds nuw i8, ptr %.pn19, i64 304
  %35 = load i32, ptr %34, align 8
  %36 = load ptr, ptr @WAYLAND_wl_proxy_marshal_flags, align 8
  %37 = load ptr, ptr @WAYLAND_wl_proxy_get_version, align 8
  %38 = tail call i32 %37(ptr noundef %32) #6
  %39 = tail call ptr (ptr, i32, ptr, i32, i32, ...) %36(ptr noundef %32, i32 noundef 0, ptr noundef null, i32 noundef %38, i32 noundef 0, i32 noundef %35, ptr noundef null, i32 noundef 0, i32 noundef 0) #6
  br label %Wayland_SeatSetCursor.exit

Wayland_SeatSetCursor.exit:                       ; preds = %31, %20, %17, %18
  %40 = getelementptr inbounds nuw i8, ptr %.pn19, i64 8
  %.pn = load ptr, ptr %40, align 8
  %.not = icmp eq ptr %.pn, %6
  br i1 %.not, label %._crit_edge, label %9, !llvm.loop !6

._crit_edge:                                      ; preds = %Wayland_SeatSetCursor.exit, %1
  ret i1 true
}